target datalayout = "e-m:e-p270:32:32-p271:32:32-p272:64:64-i64:64-i128:128-f80:128-n8:16:32:64-S128"
target triple = "x86_64-pc-linux-gnu"

%struct.hashmap = type { ptr, ptr, ptr, i32, i32, i32, i32, i8 }
%struct.index_state = type { ptr, i32, i32, i32, i32, ptr, ptr, ptr, %struct.cache_time, i8, i32, %struct.hashmap, %struct.hashmap, %struct.object_id, ptr, ptr, ptr, ptr, ptr, ptr, ptr }
%struct.cache_time = type { i32, i32 }
%struct.object_id = type { [32 x i8], i32 }
%struct.cache_entry = type { %struct.hashmap_entry, %struct.stat_data, i32, i32, i32, i32, i32, %struct.object_id, [0 x i8] }
%struct.hashmap_entry = type { ptr, i32 }
%struct.stat_data = type { %struct.cache_time, %struct.cache_time, i32, i32, i32, i32, i32 }

@give_advice_on_expansion = dso_local global i32 1, align 4
@.str.5 = private unnamed_addr constant [15 x i8] c"sparse-index.c\00", align 1
@.str.6 = private unnamed_addr constant [6 x i8] c"index\00", align 1
@.str.7 = private unnamed_addr constant [18 x i8] c"convert_to_sparse\00", align 1
@.str.8 = private unnamed_addr constant [1 x i8] zeroinitializer, align 1

; Function Attrs: nounwind uwtable
define internal i32 @index_has_unmerged_entries(ptr noundef %0) #0 {
  %2 = alloca i32, align 4
  %3 = alloca ptr, align 8
  %4 = alloca i32, align 4
  %5 = alloca i32, align 4
  store ptr %0, ptr %3, align 8, !tbaa !31
  call void @llvm.lifetime.start.p0(i64 4, ptr %4) #9
  store i32 0, ptr %4, align 4, !tbaa !9
  br label %6

6:                                                ; preds = %27, %1
  %7 = load i32, ptr %4, align 4, !tbaa !9
  %8 = load ptr, ptr %3, align 8, !tbaa !31
  %9 = getelementptr inbounds nuw %struct.index_state, ptr %8, i32 0, i32 2
  %10 = load i32, ptr %9, align 4, !tbaa !50
  %11 = icmp ult i32 %7, %10
  br i1 %11, label %12, label %30

12:                                               ; preds = %6
  %13 = load ptr, ptr %3, align 8, !tbaa !31
  %14 = getelementptr inbounds nuw %struct.index_state, ptr %13, i32 0, i32 0
  %15 = load ptr, ptr %14, align 8, !tbaa !54
  %16 = load i32, ptr %4, align 4, !tbaa !9
  %17 = sext i32 %16 to i64
  %18 = getelementptr inbounds ptr, ptr %15, i64 %17
  %19 = load ptr, ptr %18, align 8, !tbaa !55
  %20 = getelementptr inbounds nuw %struct.cache_entry, ptr %19, i32 0, i32 3
  %21 = load i32, ptr %20, align 8, !tbaa !9
  %22 = and i32 12288, %21
  %23 = lshr i32 %22, 12
  %24 = icmp ne i32 %23, 0
  br i1 %24, label %25, label %26

25:                                               ; preds = %12
  store i32 1, ptr %2, align 4
  store i32 1, ptr %5, align 4
  br label %31

26:                                               ; preds = %12
  br label %27

27:                                               ; preds = %26
  %28 = load i32, ptr %4, align 4, !tbaa !9
  %29 = add nsw i32 %28, 1
  store i32 %29, ptr %4, align 4, !tbaa !9
  br label %6, !llvm.loop !57

30:                                               ; preds = %6
  store i32 0, ptr %2, align 4
  store i32 1, ptr %5, align 4
  br label %31

31:                                               ; preds = %30, %25
  call void @llvm.lifetime.end.p0(i64 4, ptr %4) #9
  %32 = load i32, ptr %2, align 4
  ret i32 %32
}

; Function Attrs: nounwind uwtable
define dso_local i32 @convert_to_sparse(ptr noundef %0, i32 noundef %1) #0 {
  %3 = alloca i32, align 4
  %4 = alloca ptr, align 8
  %5 = alloca i32, align 4
  store ptr %0, ptr %4, align 8, !tbaa !31
  store i32 %1, ptr %5, align 4, !tbaa !9
  %6 = load ptr, ptr %4, align 8, !tbaa !31
  %7 = getelementptr inbounds nuw %struct.index_state, ptr %6, i32 0, i32 10
  %8 = load i32, ptr %7, align 4, !tbaa !49
  %9 = icmp eq i32 %8, 1
  br i1 %9, label %20, label %10

10:                                               ; preds = %2
  %11 = load ptr, ptr %4, align 8, !tbaa !31
  %12 = getelementptr inbounds nuw %struct.index_state, ptr %11, i32 0, i32 2
  %13 = load i32, ptr %12, align 4, !tbaa !50
  %14 = icmp ne i32 %13, 0
  br i1 %14, label %15, label %20

15:                                               ; preds = %10
  %16 = load ptr, ptr %4, align 8, !tbaa !31
  %17 = load i32, ptr %5, align 4, !tbaa !9
  %18 = call i32 @is_sparse_index_allowed(ptr noundef %16, i32 noundef %17)
  %19 = icmp ne i32 %18, 0
  br i1 %19, label %21, label %20

20:                                               ; preds = %15, %10, %2
  store i32 0, ptr %3, align 4
  br label %81

21:                                               ; preds = %15
  store i32 0, ptr @give_advice_on_expansion, align 4, !tbaa !9
  %22 = load ptr, ptr %4, align 8, !tbaa !31
  %23 = call i32 @index_has_unmerged_entries(ptr noundef %22)
  %24 = icmp ne i32 %23, 0
  br i1 %24, label %25, label %26

25:                                               ; preds = %21
  store i32 0, ptr %3, align 4
  br label %81

26:                                               ; preds = %21
  %27 = load ptr, ptr %4, align 8, !tbaa !31
  %28 = getelementptr inbounds nuw %struct.index_state, ptr %27, i32 0, i32 6
  %29 = load ptr, ptr %28, align 8, !tbaa !51
  %30 = call i32 @cache_tree_fully_valid(ptr noundef %29)
  %31 = icmp ne i32 %30, 0
  br i1 %31, label %40, label %32

32:                                               ; preds = %26
  %33 = load ptr, ptr %4, align 8, !tbaa !31
  %34 = getelementptr inbounds nuw %struct.index_state, ptr %33, i32 0, i32 6
  call void @cache_tree_free(ptr noundef %34)
  %35 = load ptr, ptr %4, align 8, !tbaa !31
  %36 = call i32 @cache_tree_update(ptr noundef %35, i32 noundef 1)
  %37 = icmp ne i32 %36, 0
  br i1 %37, label %38, label %39

38:                                               ; preds = %32
  store i32 0, ptr %3, align 4
  br label %81

39:                                               ; preds = %32
  br label %40

40:                                               ; preds = %39, %26
  %41 = load ptr, ptr %4, align 8, !tbaa !31
  call void @remove_fsmonitor(ptr noundef %41)
  %42 = load ptr, ptr %4, align 8, !tbaa !31
  %43 = getelementptr inbounds nuw %struct.index_state, ptr %42, i32 0, i32 19
  %44 = load ptr, ptr %43, align 8, !tbaa !44
  call void (ptr, i32, ptr, ptr, ptr, ...) @trace2_region_enter_fl(ptr noundef @.str.5, i32 noundef 237, ptr noundef @.str.6, ptr noundef @.str.7, ptr noundef %44)
  %45 = load ptr, ptr %4, align 8, !tbaa !31
  %46 = load ptr, ptr %4, align 8, !tbaa !31
  %47 = getelementptr inbounds nuw %struct.index_state, ptr %46, i32 0, i32 2
  %48 = load i32, ptr %47, align 4, !tbaa !50
  %49 = load ptr, ptr %4, align 8, !tbaa !31
  %50 = getelementptr inbounds nuw %struct.index_state, ptr %49, i32 0, i32 6
  %51 = load ptr, ptr %50, align 8, !tbaa !51
  %52 = call i32 @convert_to_sparse_rec(ptr noundef %45, i32 noundef 0, i32 noundef 0, i32 noundef %48, ptr noundef @.str.8, i64 noundef 0, ptr noundef %51)
  %53 = load ptr, ptr %4, align 8, !tbaa !31
  %54 = getelementptr inbounds nuw %struct.index_state, ptr %53, i32 0, i32 2
  store i32 %52, ptr %54, align 4, !tbaa !50
  %55 = load ptr, ptr %4, align 8, !tbaa !31
  %56 = getelementptr inbounds nuw %struct.index_state, ptr %55, i32 0, i32 6
  call void @cache_tree_free(ptr noundef %56)
  %57 = load ptr, ptr %4, align 8, !tbaa !31
  %58 = call i32 @cache_tree_update(ptr noundef %57, i32 noundef 0)
  %59 = load ptr, ptr %4, align 8, !tbaa !31
  %60 = getelementptr inbounds nuw %struct.index_state, ptr %59, i32 0, i32 9
  %61 = load i8, ptr %60, align 8
  %62 = and i8 %61, -33
  %63 = or i8 %62, 0
  store i8 %63, ptr %60, align 8
  %64 = load ptr, ptr %4, align 8, !tbaa !31
  %65 = getelementptr inbounds nuw %struct.index_state, ptr %64, i32 0, i32 16
  %66 = load ptr, ptr %65, align 8, !tbaa !52
  call void @ewah_free(ptr noundef %66)
  %67 = load ptr, ptr %4, align 8, !tbaa !31
  %68 = getelementptr inbounds nuw %struct.index_state, ptr %67, i32 0, i32 16
  store ptr null, ptr %68, align 8, !tbaa !52
  br label %69

69:                                               ; preds = %40
  %70 = load ptr, ptr %4, align 8, !tbaa !31
  %71 = getelementptr inbounds nuw %struct.index_state, ptr %70, i32 0, i32 15
  %72 = load ptr, ptr %71, align 8, !tbaa !53
  call void @free(ptr noundef %72) #9
  %73 = load ptr, ptr %4, align 8, !tbaa !31
  %74 = getelementptr inbounds nuw %struct.index_state, ptr %73, i32 0, i32 15
  store ptr null, ptr %74, align 8, !tbaa !53
  br label %75

75:                                               ; preds = %69
  %76 = load ptr, ptr %4, align 8, !tbaa !31
  %77 = getelementptr inbounds nuw %struct.index_state, ptr %76, i32 0, i32 10
  store i32 1, ptr %77, align 4, !tbaa !49
  %78 = load ptr, ptr %4, align 8, !tbaa !31
  %79 = getelementptr inbounds nuw %struct.index_state, ptr %78, i32 0, i32 19
  %80 = load ptr, ptr %79, align 8, !tbaa !44
  call void (ptr, i32, ptr, ptr, ptr, ...) @trace2_region_leave_fl(ptr noundef @.str.5, i32 noundef 252, ptr noundef @.str.6, ptr noundef @.str.7, ptr noundef %80)
  store i32 0, ptr %3, align 4
  br label %81

81:                                               ; preds = %75, %38, %25, %20
  %82 = load i32, ptr %3, align 4
  ret i32 %82
}