; Function Attrs: nounwind uwtable
define dso_local noundef i32 @convert_to_sparse(ptr noundef %0, i32 noundef %1) local_unnamed_addr #0 {
  %3 = getelementptr inbounds nuw i8, ptr %0, i64 60
  %4 = load i32, ptr %3, align 4, !tbaa !47
  %5 = icmp eq i32 %4, 1
  br i1 %5, label %index_has_unmerged_entries.exit, label %6

6:                                                ; preds = %2
  %7 = getelementptr inbounds nuw i8, ptr %0, i64 12
  %8 = load i32, ptr %7, align 4, !tbaa !48
  %.not = icmp eq i32 %8, 0
  br i1 %.not, label %index_has_unmerged_entries.exit, label %9

9:                                                ; preds = %6
  %10 = tail call i32 @is_sparse_index_allowed(ptr noundef nonnull %0, i32 noundef %1)
  %.not23 = icmp eq i32 %10, 0
  br i1 %.not23, label %index_has_unmerged_entries.exit, label %11

11:                                               ; preds = %9
  store i32 0, ptr @give_advice_on_expansion, align 4, !tbaa !28
  %12 = load i32, ptr %7, align 4, !tbaa !48
  %.not9.i = icmp eq i32 %12, 0
  br i1 %.not9.i, label %.loopexit, label %.lr.ph.i

.lr.ph.i:                                         ; preds = %11
  %13 = load ptr, ptr %0, align 8, !tbaa !49
  %wide.trip.count.i = zext i32 %12 to i64
  br label %15

14:                                               ; preds = %15
  %indvars.iv.next.i = add nuw nsw i64 %indvars.iv.i, 1
  %exitcond.not.i = icmp eq i64 %indvars.iv.next.i, %wide.trip.count.i
  br i1 %exitcond.not.i, label %.loopexit, label %15, !llvm.loop !50

15:                                               ; preds = %14, %.lr.ph.i
  %indvars.iv.i = phi i64 [ 0, %.lr.ph.i ], [ %indvars.iv.next.i, %14 ]
  %16 = getelementptr inbounds nuw ptr, ptr %13, i64 %indvars.iv.i
  %17 = load ptr, ptr %16, align 8, !tbaa !52
  %18 = getelementptr inbounds nuw i8, ptr %17, i64 56
  %19 = load i32, ptr %18, align 8, !tbaa !28
  %20 = and i32 %19, 12288
  %.not.i = icmp eq i32 %20, 0
  br i1 %.not.i, label %14, label %index_has_unmerged_entries.exit

.loopexit:                                        ; preds = %14, %11
  %21 = getelementptr inbounds nuw i8, ptr %0, i64 32
  %22 = load ptr, ptr %21, align 8, !tbaa !54
  %23 = tail call i32 @cache_tree_fully_valid(ptr noundef %22) #12
  %.not25 = icmp eq i32 %23, 0
  br i1 %.not25, label %24, label %26

24:                                               ; preds = %.loopexit
  tail call void @cache_tree_free(ptr noundef nonnull %21) #12
  %25 = tail call i32 @cache_tree_update(ptr noundef nonnull %0, i32 noundef 1) #12
  %.not26 = icmp eq i32 %25, 0
  br i1 %.not26, label %26, label %index_has_unmerged_entries.exit

26:                                               ; preds = %24, %.loopexit
  tail call void @remove_fsmonitor(ptr noundef nonnull %0) #12
  %27 = getelementptr inbounds nuw i8, ptr %0, i64 240
  %28 = load ptr, ptr %27, align 8, !tbaa !42
  tail call void (ptr, i32, ptr, ptr, ptr, ...) @trace2_region_enter_fl(ptr noundef nonnull @.str.5, i32 noundef 237, ptr noundef nonnull @.str.6, ptr noundef nonnull @.str.7, ptr noundef %28) #12
  %29 = load i32, ptr %7, align 4, !tbaa !48
  %30 = load ptr, ptr %21, align 8, !tbaa !54
  %31 = tail call fastcc i32 @convert_to_sparse_rec(ptr noundef nonnull %0, i32 noundef 0, i32 noundef 0, i32 noundef %29, ptr noundef nonnull @.str.8, i64 noundef 0, ptr noundef %30)
  store i32 %31, ptr %7, align 4, !tbaa !48
  tail call void @cache_tree_free(ptr noundef nonnull %21) #12
  %32 = tail call i32 @cache_tree_update(ptr noundef nonnull %0, i32 noundef 0) #12
  %33 = getelementptr inbounds nuw i8, ptr %0, i64 56
  %34 = load i8, ptr %33, align 8
  %35 = and i8 %34, -33
  store i8 %35, ptr %33, align 8
  %36 = getelementptr inbounds nuw i8, ptr %0, i64 216
  %37 = load ptr, ptr %36, align 8, !tbaa !55
  tail call void @ewah_free(ptr noundef %37) #12
  store ptr null, ptr %36, align 8, !tbaa !55
  %38 = getelementptr inbounds nuw i8, ptr %0, i64 208
  %39 = load ptr, ptr %38, align 8, !tbaa !56
  tail call void @free(ptr noundef %39) #12
  store ptr null, ptr %38, align 8, !tbaa !56
  store i32 1, ptr %3, align 4, !tbaa !47
  %40 = load ptr, ptr %27, align 8, !tbaa !42
  tail call void (ptr, i32, ptr, ptr, ptr, ...) @trace2_region_leave_fl(ptr noundef nonnull @.str.5, i32 noundef 252, ptr noundef nonnull @.str.6, ptr noundef nonnull @.str.7, ptr noundef %40) #12
  br label %index_has_unmerged_entries.exit

index_has_unmerged_entries.exit:                  ; preds = %15, %24, %2, %6, %9, %26
  ret i32 0
}